; Function Attrs: mustprogress nofree norecurse nosync nounwind willreturn memory(argmem: readwrite) uwtable
define void @_ZN18b2RevoluteJointDef10InitializeEP6b2BodyS1_RK6b2Vec2(ptr nocapture noundef nonnull writeonly align 8 dereferenceable(80) %this, ptr noundef %bA, ptr noundef %bB, ptr nocapture noundef nonnull readonly align 4 dereferenceable(8) %anchor) local_unnamed_addr #0 align 2 {
entry:
  %bodyA = getelementptr inbounds i8, ptr %this, i64 16
  store ptr %bA, ptr %bodyA, align 8
  %bodyB = getelementptr inbounds i8, ptr %this, i64 24
  store ptr %bB, ptr %bodyB, align 8
  %m_xf.i = getelementptr inbounds i8, ptr %bA, i64 12
  %0 = load float, ptr %anchor, align 4
  %1 = load float, ptr %m_xf.i, align 4
  %sub.i.i = fsub float %0, %1
  %y.i.i = getelementptr inbounds i8, ptr %anchor, i64 4
  %2 = load float, ptr %y.i.i, align 4
  %y3.i.i = getelementptr inbounds i8, ptr %bA, i64 16
  %3 = load float, ptr %y3.i.i, align 4
  %sub4.i.i = fsub float %2, %3
  %q.i.i = getelementptr inbounds i8, ptr %bA, i64 20
  %4 = load <2 x float>, ptr %q.i.i, align 4
  %5 = extractelement <2 x float> %4, i64 0
  %fneg.i.i = fneg float %5
  %6 = insertelement <2 x float> poison, float %sub4.i.i, i64 0
  %7 = shufflevector <2 x float> %6, <2 x float> poison, <2 x i32> zeroinitializer
  %8 = fmul <2 x float> %7, %4
  %9 = shufflevector <2 x float> %4, <2 x float> poison, <2 x i32> <i32 1, i32 poison>
  %10 = insertelement <2 x float> %9, float %fneg.i.i, i64 1
  %11 = insertelement <2 x float> poison, float %sub.i.i, i64 0
  %12 = shufflevector <2 x float> %11, <2 x float> poison, <2 x i32> zeroinitializer
  %13 = tail call <2 x float> @llvm.fmuladd.v2f32(<2 x float> %10, <2 x float> %12, <2 x float> %8)
  %localAnchorA = getelementptr inbounds i8, ptr %this, i64 36
  store <2 x float> %13, ptr %localAnchorA, align 4
  %m_xf.i2 = getelementptr inbounds i8, ptr %bB, i64 12
  %14 = load float, ptr %anchor, align 4
  %15 = load float, ptr %m_xf.i2, align 4
  %sub.i.i3 = fsub float %14, %15
  %16 = load float, ptr %y.i.i, align 4
  %y3.i.i5 = getelementptr inbounds i8, ptr %bB, i64 16
  %17 = load float, ptr %y3.i.i5, align 4
  %sub4.i.i6 = fsub float %16, %17
  %q.i.i7 = getelementptr inbounds i8, ptr %bB, i64 20
  %18 = load <2 x float>, ptr %q.i.i7, align 4
  %19 = extractelement <2 x float> %18, i64 0
  %fneg.i.i10 = fneg float %19
  %20 = insertelement <2 x float> poison, float %sub4.i.i6, i64 0
  %21 = shufflevector <2 x float> %20, <2 x float> poison, <2 x i32> zeroinitializer
  %22 = fmul <2 x float> %21, %18
  %23 = shufflevector <2 x float> %18, <2 x float> poison, <2 x i32> <i32 1, i32 poison>
  %24 = insertelement <2 x float> %23, float %fneg.i.i10, i64 1
  %25 = insertelement <2 x float> poison, float %sub.i.i3, i64 0
  %26 = shufflevector <2 x float> %25, <2 x float> poison, <2 x i32> zeroinitializer
  %27 = tail call <2 x float> @llvm.fmuladd.v2f32(<2 x float> %24, <2 x float> %26, <2 x float> %22)
  %localAnchorB = getelementptr inbounds i8, ptr %this, i64 44
  store <2 x float> %27, ptr %localAnchorB, align 4
  %a.i = getelementptr inbounds i8, ptr %bB, i64 56
  %28 = load float, ptr %a.i, align 4
  %a.i14 = getelementptr inbounds i8, ptr %bA, i64 56
  %29 = load float, ptr %a.i14, align 4
  %sub = fsub float %28, %29
  %referenceAngle = getelementptr inbounds i8, ptr %this, i64 52
  store float %sub, ptr %referenceAngle, align 4
  ret void
}